(lp0
(cnumpy.core.multiarray
_reconstruct
p1
(cnumpy
ndarray
p2
(I0
tp3
S'b'
p4
tp5
Rp6
(I1
(I4
tp7
cnumpy
dtype
p8
(S'f8'
p9
I0
I1
tp10
Rp11
(I3
S'<'
p12
NNNI-1
I-1
I0
tp13
bI00
S'\x8c\xce%Pg\xe1$@\x9c\xa23$\x8c^"@g\xb4\xe34<J\xff?K\xa1\x04\xd3D\xdc\x8c@'
p14
tp15
b(lp16
F-816.0
aF-734.9
aF-673.6
aF-796.2
aF-603.0
aF-604.0
aF-602.2
aF-583.2
aF-762.5
aF-545.9
aF-644.6
aF-642.3
aF-571.0
aF-598.9
aF-637.4
aF-517.2
aF-564.4
aF-517.7
aF-424.8
aF-627.6
aF-787.7
aF-552.7
aF-539.9
aF-489.2
aF-491.2
aF-554.5
aF-563.5
aF-617.8
aF-507.7
aF-435.6
aF-743.2
aF-473.4
aF-524.4
aF-807.1
aF-551.8
aF-643.5
aF-625.3
aF-597.1
aF-573.0
aF-604.2
aF-566.3
aF-544.5
aF-764.0
aF-514.8
aF-507.2
aF-453.4
aF-630.7
aF-583.8
aF-512.0
aF-584.9
aF-672.5
aF-546.8
aF-519.7
aF-642.8
aF-554.9
aF-690.6
aF-607.2
aF-596.6
aF-504.1
aF-581.2
aF-618.0
aF-591.6
aF-509.7
aF-517.9
aF-574.5
aF-654.4
aF-532.7
aF-448.3
aF-545.3
aF-590.5
aF-486.7
aF-450.8
aF-509.5
aF-587.9
aF-578.2
aF-569.0
aF-563.9
aF-480.2
aF-594.4
aF-550.3
aF-451.3
aF-497.9
aF-545.5
aF-753.2
aF-602.2
aF-650.2
aF-627.1
aF-508.2
aF-590.2
aF-482.3
aF-603.2
aF-521.2
aF-582.7
aF-494.7
aF-685.8
aF-634.6
aF-628.3
aF-654.2
aF-654.2
aF-550.2
aF-528.1
atp17
a(g1
(g2
(I0
tp18
g4
tp19
Rp20
(I1
(I4
tp21
g8
(S'f8'
p22
I0
I1
tp23
Rp24
(I3
S'<'
p25
NNNI-1
I-1
I0
tp26
bI00
S'\xc2\xd6\x89b\xb8;$@~5\xb3m\x05D"@zp!\xe5\xf8\x02\xf0?]A\xbc_\xd3\xa5\x8d@'
p27
tp28
b(lp29
F-594.2
aF-537.0
aF-654.8
aF-724.0
aF-653.5
aF-643.2
aF-667.2
aF-796.4
aF-627.8
aF-449.0
aF-605.2
aF-491.5
aF-775.2
aF-540.8
aF-581.9
aF-771.2
aF-790.6
aF-579.1
aF-570.3
aF-638.0
aF-504.4
aF-658.3
aF-799.2
aF-606.2
aF-616.1
aF-625.8
aF-657.2
aF-432.5
aF-610.3
aF-447.6
aF-527.8
aF-687.4
aF-474.8
aF-417.8
aF-529.7
aF-614.7
aF-681.3
aF-437.4
aF-633.7
aF-540.4
aF-480.2
aF-703.1
aF-630.2
aF-427.5
aF-488.6
aF-489.0
aF-669.3
aF-532.6
aF-678.2
aF-745.3
aF-571.2
aF-657.0
aF-448.5
aF-420.1
aF-610.6
aF-665.7
aF-610.4
aF-564.2
aF-451.3
aF-634.1
aF-623.4
aF-611.7
aF-627.3
aF-543.0
aF-644.1
aF-553.2
aF-606.3
aF-469.4
aF-646.0
aF-537.9
aF-536.6
aF-587.4
aF-691.8
aF-623.2
aF-532.5
aF-477.9
aF-469.6
aF-578.1
aF-529.8
aF-549.1
aF-639.9
aF-447.5
aF-520.8
aF-538.8
aF-566.3
aF-449.5
aF-510.0
aF-694.6
aF-547.9
aF-471.8
aF-520.0
aF-462.9
aF-453.7
aF-583.3
aF-484.4
aF-494.7
aF-470.4
aF-627.0
aF-408.1
aF-542.3
aF-568.1
atp30
a(g1
(g2
(I0
tp31
g4
tp32
Rp33
(I1
(I4
tp34
g8
(S'f8'
p35
I0
I1
tp36
Rp37
(I3
S'<'
p38
NNNI-1
I-1
I0
tp39
bI00
S'C\xb3\xf9\x99,\xef%@$j\xeb\xcb))$@:w\xcap\x02A\xe7?\xa3dx\xe4\xd35\x8c@'
p40
tp41
b(lp42
F-725.7
aF-589.8
aF-482.9
aF-657.8
aF-696.9
aF-547.5
aF-801.5
aF-587.7
aF-567.2
aF-616.0
aF-651.4
aF-704.8
aF-475.6
aF-575.2
aF-738.0
aF-631.3
aF-612.0
aF-514.4
aF-689.5
aF-512.7
aF-733.5
aF-704.8
aF-592.3
aF-552.4
aF-744.2
aF-527.6
aF-544.9
aF-553.9
aF-679.5
aF-498.4
aF-593.0
aF-506.3
aF-560.9
aF-637.1
aF-681.9
aF-557.8
aF-639.3
aF-511.2
aF-466.7
aF-662.6
aF-653.0
aF-454.3
aF-523.2
aF-700.4
aF-493.5
aF-544.6
aF-550.3
aF-606.6
aF-577.9
aF-462.7
aF-593.7
aF-591.1
aF-607.6
aF-583.2
aF-520.3
aF-573.6
aF-615.1
aF-588.5
aF-591.4
aF-542.5
aF-404.6
aF-618.6
aF-543.6
aF-631.3
aF-522.9
aF-620.5
aF-636.4
aF-502.3
aF-606.2
aF-551.9
aF-604.0
aF-414.2
aF-414.3
aF-499.4
aF-475.4
aF-642.2
aF-620.7
aF-547.0
aF-481.1
aF-566.2
aF-567.3
aF-623.6
aF-476.1
aF-456.3
aF-469.6
aF-397.0
aF-413.0
aF-563.2
aF-604.2
aF-476.9
aF-433.8
aF-546.8
aF-490.3
aF-427.5
aF-645.6
aF-502.6
aF-547.0
aF-497.3
aF-642.9
aF-530.7
aF-496.5
atp43
a(g1
(g2
(I0
tp44
g4
tp45
Rp46
(I1
(I4
tp47
g8
(S'f8'
p48
I0
I1
tp49
Rp50
(I3
S'<'
p51
NNNI-1
I-1
I0
tp52
bI00
S'bV\xacC\xc2\x1c%@\x8eb|\xca"\xac$@G"\x83\x04iY\xf6?\xea\x93C\xde\xf8^\x88@'
p53
tp54
b(lp55
F-492.8
aF-589.3
aF-495.6
aF-439.1
aF-576.6
aF-537.5
aF-540.6
aF-678.8
aF-680.2
aF-575.3
aF-611.6
aF-592.5
aF-526.3
aF-674.4
aF-469.3
aF-565.7
aF-631.3
aF-630.0
aF-603.3
aF-604.8
aF-383.8
aF-541.4
aF-510.0
aF-568.7
aF-642.3
aF-684.9
aF-524.7
aF-439.0
aF-512.0
aF-608.5
aF-449.3
aF-535.9
aF-573.8
aF-677.4
aF-469.5
aF-642.2
aF-520.1
aF-663.9
aF-535.9
aF-459.5
aF-731.6
aF-529.5
aF-597.9
aF-581.0
aF-539.4
aF-681.6
aF-581.0
aF-660.8
aF-488.5
aF-547.5
aF-566.8
aF-595.9
aF-580.5
aF-514.4
aF-507.4
aF-502.2
aF-472.0
aF-584.5
aF-564.4
aF-548.2
aF-519.3
aF-674.0
aF-631.2
aF-415.4
aF-570.8
aF-645.5
aF-607.8
aF-678.7
aF-487.2
aF-827.9
aF-809.0
aF-550.4
aF-587.5
aF-567.9
aF-540.7
aF-471.1
aF-563.2
aF-601.4
aF-667.4
aF-511.9
aF-602.1
aF-475.2
aF-576.3
aF-522.0
aF-425.0
aF-617.1
aF-442.6
aF-549.2
aF-449.7
aF-518.4
aF-609.8
aF-544.4
aF-515.9
aF-487.8
aF-673.0
aF-561.1
aF-579.9
aF-481.5
aF-751.6
aF-540.9
aF-514.7
atp56
a(g1
(g2
(I0
tp57
g4
tp58
Rp59
(I1
(I4
tp60
g8
(S'f8'
p61
I0
I1
tp62
Rp63
(I3
S'<'
p64
NNNI-1
I-1
I0
tp65
bI00
S' \xbed%\x0c\x99$@\xf79\xea\x00\xaa\xf5#@K\xc5\xa9?\xd5>\xfa?{\x11\x06\xa7=\x00\x8a@'
p66
tp67
b(lp68
F-437.1
aF-741.9
aF-516.3
aF-827.7
aF-651.7
aF-551.1
aF-520.9
aF-569.8
aF-717.3
aF-669.8
aF-461.5
aF-518.5
aF-462.3
aF-598.6
aF-566.4
aF-652.8
aF-551.2
aF-531.5
aF-514.3
aF-564.2
aF-618.8
aF-659.6
aF-561.3
aF-673.1
aF-646.7
aF-599.9
aF-525.4
aF-411.4
aF-578.9
aF-636.8
aF-798.2
aF-682.3
aF-480.6
aF-419.1
aF-565.0
aF-527.7
aF-671.6
aF-571.9
aF-615.8
aF-600.1
aF-532.1
aF-689.9
aF-587.9
aF-491.3
aF-657.6
aF-505.1
aF-628.7
aF-529.2
aF-568.3
aF-496.9
aF-755.0
aF-524.3
aF-577.1
aF-692.0
aF-575.6
aF-638.1
aF-593.0
aF-545.1
aF-639.6
aF-550.6
aF-528.2
aF-654.7
aF-695.0
aF-574.3
aF-600.7
aF-486.0
aF-403.2
aF-549.7
aF-388.1
aF-571.1
aF-415.8
aF-561.3
aF-630.6
aF-471.2
aF-912.4
aF-767.1
aF-571.4
aF-483.2
aF-623.2
aF-503.8
aF-481.1
aF-420.2
aF-510.7
aF-605.2
aF-533.0
aF-765.2
aF-636.8
aF-542.9
aF-847.1
aF-694.4
aF-674.3
aF-652.2
aF-465.8
aF-601.0
aF-589.4
aF-432.3
aF-490.9
aF-603.0
aF-617.5
aF-579.9
aF-668.4
atp69
a(g1
(g2
(I0
tp70
g4
tp71
Rp72
(I1
(I4
tp73
g8
(S'f8'
p74
I0
I1
tp75
Rp76
(I3
S'<'
p77
NNNI-1
I-1
I0
tp78
bI00
S'\xb0\'\x19\xaa\xa2\xb4&@\xd4\x90\x81\xb8m7"@\xd3F\xd7\x10\xb2\x0f\xf8?\xf7\x1bd\xf8\x02j\x83@'
p79
tp80
b(lp81
F-615.1
aF-689.4
aF-798.6
aF-641.3
aF-642.2
aF-569.3
aF-715.7
aF-498.6
aF-612.2
aF-415.8
aF-662.6
aF-555.0
aF-379.4
aF-754.1
aF-577.6
aF-640.4
aF-894.8
aF-587.2
aF-712.8
aF-713.3
aF-534.2
aF-601.7
aF-664.1
aF-629.1
aF-556.5
aF-674.5
aF-450.1
aF-576.2
aF-693.6
aF-587.1
aF-607.6
aF-592.7
aF-637.1
aF-478.0
aF-623.3
aF-575.5
aF-579.1
aF-587.0
aF-619.7
aF-540.8
aF-677.1
aF-557.3
aF-643.5
aF-659.0
aF-681.7
aF-605.7
aF-609.6
aF-603.8
aF-674.7
aF-721.6
aF-595.7
aF-613.8
aF-443.5
aF-648.1
aF-766.9
aF-513.2
aF-644.5
aF-552.6
aF-465.1
aF-721.5
aF-527.6
aF-523.4
aF-478.9
aF-588.0
aF-612.5
aF-605.3
aF-766.3
aF-715.6
aF-733.1
aF-552.9
aF-722.2
aF-626.5
aF-609.8
aF-657.9
aF-643.2
aF-567.6
aF-634.1
aF-672.2
aF-611.6
aF-554.5
aF-675.6
aF-381.6
aF-715.6
aF-690.4
aF-689.1
aF-646.0
aF-512.6
aF-681.6
aF-693.3
aF-682.1
aF-571.9
aF-731.7
aF-608.6
aF-569.6
aF-697.7
aF-610.1
aF-565.7
aF-579.2
aF-516.2
aF-756.9
aF-658.3
atp82
a(g1
(g2
(I0
tp83
g4
tp84
Rp85
(I1
(I4
tp86
g8
(S'f8'
p87
I0
I1
tp88
Rp89
(I3
S'<'
p90
NNNI-1
I-1
I0
tp91
bI00
S'\x0e\xb2a\x97\xfa_&@8`\x8d\x9d\x191$@\x00\xe7\x0e\x07B\xe0\xfa?\xf0{\xd2\xe7>4\x8c@'
p92
tp93
b(lp94
F-701.0
aF-465.3
aF-644.0
aF-525.2
aF-637.6
aF-684.5
aF-598.5
aF-695.5
aF-755.5
aF-642.4
aF-397.4
aF-755.5
aF-636.3
aF-605.1
aF-723.1
aF-520.5
aF-625.5
aF-537.9
aF-640.3
aF-701.9
aF-581.9
aF-538.9
aF-406.0
aF-566.0
aF-502.5
aF-592.5
aF-537.3
aF-527.6
aF-500.7
aF-477.6
aF-700.0
aF-485.8
aF-633.6
aF-565.0
aF-564.6
aF-489.3
aF-615.0
aF-379.0
aF-454.7
aF-638.9
aF-739.9
aF-581.9
aF-697.2
aF-525.7
aF-597.2
aF-511.0
aF-485.4
aF-605.2
aF-663.6
aF-527.5
aF-558.9
aF-437.3
aF-526.8
aF-524.4
aF-611.4
aF-653.3
aF-607.6
aF-485.8
aF-448.4
aF-659.1
aF-527.9
aF-555.1
aF-449.9
aF-409.3
aF-673.1
aF-639.7
aF-486.9
aF-547.2
aF-629.0
aF-521.7
aF-541.2
aF-617.0
aF-533.3
aF-595.1
aF-485.9
aF-578.4
aF-537.4
aF-574.5
aF-426.6
aF-569.9
aF-414.7
aF-668.1
aF-421.7
aF-499.8
aF-593.3
aF-522.2
aF-627.7
aF-632.0
aF-529.9
aF-443.9
aF-548.4
aF-571.5
aF-626.6
aF-542.4
aF-432.7
aF-633.7
aF-428.0
aF-596.4
aF-433.4
aF-596.9
aF-499.4
atp95
a(g1
(g2
(I0
tp96
g4
tp97
Rp98
(I1
(I4
tp99
g8
(S'f8'
p100
I0
I1
tp101
Rp102
(I3
S'<'
p103
NNNI-1
I-1
I0
tp104
bI00
S'$\xe4\xa0\x8a}($@(l\x11\xcd\xceO#@`d\x05\\\x042\xf9\xbf@E\xe5&\xfc\xc0\x83@'
p105
tp106
b(lp107
F-510.6
aF-644.9
aF-615.0
aF-549.9
aF-559.0
aF-654.8
aF-621.1
aF-676.2
aF-654.1
aF-590.3
aF-585.2
aF-719.1
aF-782.6
aF-659.7
aF-698.6
aF-613.0
aF-600.2
aF-640.1
aF-813.2
aF-636.0
aF-543.2
aF-491.6
aF-518.5
aF-638.5
aF-702.9
aF-615.8
aF-641.0
aF-589.2
aF-597.6
aF-680.4
aF-520.3
aF-535.4
aF-503.7
aF-642.4
aF-562.3
aF-522.1
aF-482.7
aF-516.1
aF-596.8
aF-867.4
aF-680.9
aF-563.2
aF-705.0
aF-591.3
aF-583.0
aF-562.7
aF-664.1
aF-550.9
aF-493.7
aF-577.1
aF-390.7
aF-566.4
aF-627.3
aF-678.2
aF-630.8
aF-648.5
aF-579.3
aF-588.7
aF-553.1
aF-563.4
aF-494.3
aF-565.6
aF-829.5
aF-599.5
aF-487.9
aF-553.7
aF-618.3
aF-620.1
aF-546.4
aF-618.0
aF-758.0
aF-456.1
aF-528.2
aF-709.7
aF-531.9
aF-509.3
aF-694.0
aF-659.7
aF-589.5
aF-805.0
aF-623.7
aF-551.7
aF-651.0
aF-640.7
aF-630.1
aF-632.5
aF-696.9
aF-545.6
aF-647.6
aF-759.6
aF-636.2
aF-753.1
aF-558.2
aF-569.8
aF-580.3
aF-516.1
aF-449.8
aF-642.8
aF-580.4
aF-601.9
aF-615.9
atp108
a(g1
(g2
(I0
tp109
g4
tp110
Rp111
(I1
(I4
tp112
g8
(S'f8'
p113
I0
I1
tp114
Rp115
(I3
S'<'
p116
NNNI-1
I-1
I0
tp117
bI00
S'\x87\x9a2\x9b\xca\x97#@\\\xedr\xc6\xf9(%@1!8\x96\\\xb7\xf9\xbf\xb3B\xe9\x1f\xed\xc9\x89@'
p118
tp119
b(lp120
F-579.4
aF-552.3
aF-531.4
aF-628.5
aF-599.5
aF-656.4
aF-474.8
aF-581.7
aF-617.2
aF-615.0
aF-589.8
aF-614.8
aF-648.7
aF-770.3
aF-518.4
aF-513.5
aF-605.6
aF-438.1
aF-511.3
aF-492.9
aF-716.0
aF-552.5
aF-548.5
aF-605.7
aF-635.3
aF-697.5
aF-518.8
aF-620.9
aF-718.3
aF-450.2
aF-700.8
aF-491.6
aF-612.1
aF-481.3
aF-542.5
aF-671.4
aF-587.0
aF-526.2
aF-692.7
aF-678.6
aF-539.8
aF-580.7
aF-609.6
aF-557.3
aF-649.3
aF-759.1
aF-606.0
aF-483.8
aF-601.0
aF-664.1
aF-580.0
aF-618.2
aF-586.6
aF-588.1
aF-689.5
aF-661.9
aF-508.6
aF-547.1
aF-550.4
aF-647.4
aF-669.6
aF-598.0
aF-552.3
aF-669.9
aF-656.4
aF-585.2
aF-633.5
aF-593.0
aF-517.6
aF-488.8
aF-504.6
aF-609.5
aF-456.8
aF-599.4
aF-451.1
aF-516.5
aF-564.4
aF-550.9
aF-543.8
aF-616.9
aF-501.5
aF-651.2
aF-549.3
aF-477.3
aF-523.4
aF-540.8
aF-442.4
aF-611.2
aF-520.5
aF-545.8
aF-507.4
aF-588.1
aF-623.2
aF-604.8
aF-619.9
aF-689.4
aF-479.6
aF-518.8
aF-535.2
aF-562.0
aF-468.3
atp121
a(g1
(g2
(I0
tp122
g4
tp123
Rp124
(I1
(I4
tp125
g8
(S'f8'
p126
I0
I1
tp127
Rp128
(I3
S'<'
p129
NNNI-1
I-1
I0
tp130
bI00
S'\x8c\xd5mgt\xb0#@\xb2\xb6\x06\xb8j#A\xc0\xbe<R\xa0\x97\x8b\xf0\xbf\xca:\x19V\xd2\xbf\xa4@'
p131
tp132
b(lp133
F-609.6
aF-627.8
aF-478.5
aF-344.2
aF-357.4
aF-398.6
aF-401.2
aF-475.1
aF-494.1
aF-458.3
aF-456.2
aF-375.6
aF-586.6
aF-397.3
aF-433.3
aF-567.1
aF-440.5
aF-452.8
aF-433.4
aF-397.5
aF-544.4
aF-460.3
aF-560.6
aF-417.8
aF-358.3
aF-460.8
aF-523.7
aF-561.5
aF-521.9
aF-452.7
aF-450.2
aF-549.5
aF-713.7
aF-440.0
aF-533.0
aF-465.8
aF-575.3
aF-538.6
aF-488.5
aF-434.7
aF-658.5
aF-444.2
aF-534.3
aF-461.5
aF-605.6
aF-538.4
aF-498.4
aF-382.0
aF-502.0
aF-525.5
aF-404.2
aF-435.5
aF-364.0
aF-560.0
aF-321.3
aF-491.9
aF-440.2
aF-498.4
aF-538.8
aF-546.4
aF-551.0
aF-657.5
aF-739.1
aF-419.4
aF-454.0
aF-466.2
aF-437.6
aF-621.6
aF-546.1
aF-571.5
aF-343.5
aF-488.6
aF-597.2
aF-385.1
aF-489.8
aF-496.2
aF-544.3
aF-525.6
aF-454.3
aF-585.8
aF-586.5
aF-564.4
aF-446.3
aF-371.7
aF-448.8
aF-468.1
aF-410.1
aF-513.1
aF-584.5
aF-395.9
aF-445.8
aF-561.6
aF-395.4
aF-493.9
aF-387.7
aF-523.0
aF-328.5
aF-676.7
aF-642.8
aF-678.1
aF-356.0
atp134
a(g1
(g2
(I0
tp135
g4
tp136
Rp137
(I1
(I4
tp138
g8
(S'f8'
p139
I0
I1
tp140
Rp141
(I3
S'<'
p142
NNNI-1
I-1
I0
tp143
bI00
S'\xe2\x01\x08\xf7R\x89"@\x953| \xd1\xdc"@/\x03i\x94\xc8\x05\xf4?\x08\xc9\x0e\xc3\x9e\x12\x86@'
p144
tp145
b(lp146
F-511.4
aF-523.5
aF-931.5
aF-518.2
aF-799.6
aF-504.0
aF-516.9
aF-442.7
aF-680.7
aF-683.7
aF-755.4
aF-649.6
aF-454.6
aF-607.8
aF-617.9
aF-699.6
aF-578.1
aF-604.6
aF-481.7
aF-546.7
aF-645.8
aF-643.1
aF-704.7
aF-559.6
aF-534.6
aF-705.8
aF-474.7
aF-392.8
aF-683.9
aF-580.1
aF-488.0
aF-690.9
aF-613.9
aF-617.2
aF-659.2
aF-544.6
aF-770.9
aF-565.3
aF-692.3
aF-554.5
aF-673.2
aF-649.2
aF-657.7
aF-678.6
aF-557.9
aF-613.8
aF-546.4
aF-498.9
aF-594.5
aF-559.1
aF-544.3
aF-726.2
aF-706.1
aF-699.9
aF-543.3
aF-756.2
aF-543.3
aF-715.5
aF-513.9
aF-429.8
aF-664.7
aF-446.2
aF-450.8
aF-502.1
aF-451.5
aF-587.8
aF-628.3
aF-560.8
aF-597.0
aF-643.7
aF-645.2
aF-702.8
aF-703.2
aF-435.7
aF-380.7
aF-861.4
aF-520.9
aF-482.4
aF-716.5
aF-745.1
aF-621.7
aF-756.1
aF-640.9
aF-618.6
aF-521.6
aF-568.9
aF-751.2
aF-524.4
aF-518.5
aF-668.8
aF-543.3
aF-666.6
aF-488.9
aF-447.8
aF-579.3
aF-622.2
aF-669.4
aF-680.4
aF-637.0
aF-654.4
aF-604.7
atp147
a(g1
(g2
(I0
tp148
g4
tp149
Rp150
(I1
(I4
tp151
g8
(S'f8'
p152
I0
I1
tp153
Rp154
(I3
S'<'
p155
NNNI-1
I-1
I0
tp156
bI00
S'\xc2\x12L\xb3V\xf2"@\xe1%\xa7Y\x19_$@\x8e\x96rq\x80#\xb8?\xa6\xbf\x8d\xc3\x16\xe7\x87@'
p157
tp158
b(lp159
F-618.4
aF-657.1
aF-669.6
aF-466.2
aF-680.8
aF-582.8
aF-703.4
aF-609.5
aF-746.4
aF-554.3
aF-714.8
aF-630.8
aF-559.7
aF-735.9
aF-668.6
aF-536.0
aF-642.2
aF-748.5
aF-589.5
aF-640.3
aF-540.1
aF-530.6
aF-510.4
aF-469.5
aF-668.5
aF-381.4
aF-478.9
aF-579.4
aF-551.8
aF-608.8
aF-610.2
aF-632.6
aF-602.3
aF-623.9
aF-591.1
aF-608.7
aF-552.5
aF-670.9
aF-706.6
aF-493.3
aF-540.0
aF-689.3
aF-606.1
aF-470.7
aF-426.8
aF-600.9
aF-721.7
aF-551.3
aF-601.0
aF-563.8
aF-642.6
aF-626.0
aF-620.5
aF-584.6
aF-644.0
aF-649.6
aF-789.7
aF-493.5
aF-684.8
aF-705.2
aF-511.6
aF-632.4
aF-690.5
aF-623.0
aF-398.3
aF-525.8
aF-572.7
aF-540.1
aF-513.3
aF-566.8
aF-582.2
aF-769.4
aF-684.7
aF-523.6
aF-566.5
aF-455.2
aF-459.4
aF-619.3
aF-595.3
aF-575.6
aF-453.1
aF-656.8
aF-671.1
aF-590.0
aF-539.4
aF-546.0
aF-670.0
aF-742.5
aF-529.6
aF-555.1
aF-484.7
aF-625.1
aF-725.9
aF-651.6
aF-514.9
aF-455.1
aF-617.5
aF-760.3
aF-615.0
aF-457.3
aF-523.2
atp160
a(g1
(g2
(I0
tp161
g4
tp162
Rp163
(I1
(I4
tp164
g8
(S'f8'
p165
I0
I1
tp166
Rp167
(I3
S'<'
p168
NNNI-1
I-1
I0
tp169
bI00
S'L\xd5\xcdh!q%@\x05F\x1c\xdf\x81\x90%@*\x0e@\x0c\x1d\n\xec?\xc1\xd8\n\\?\x1d\x84@'
p170
tp171
b(lp172
F-598.1
aF-584.6
aF-488.7
aF-616.4
aF-564.8
aF-620.7
aF-644.2
aF-431.8
aF-655.3
aF-578.6
aF-635.8
aF-546.0
aF-517.3
aF-544.4
aF-736.3
aF-571.5
aF-691.7
aF-665.6
aF-543.4
aF-768.3
aF-668.5
aF-595.2
aF-563.1
aF-534.6
aF-557.8
aF-569.4
aF-641.6
aF-695.2
aF-683.2
aF-637.2
aF-420.0
aF-610.9
aF-553.2
aF-489.5
aF-738.4
aF-830.7
aF-462.3
aF-736.7
aF-636.8
aF-638.1
aF-768.8
aF-503.9
aF-750.1
aF-526.1
aF-607.2
aF-421.7
aF-619.1
aF-713.8
aF-616.4
aF-735.9
aF-516.4
aF-542.4
aF-703.0
aF-695.8
aF-514.8
aF-826.6
aF-569.0
aF-670.2
aF-480.7
aF-609.2
aF-525.3
aF-770.1
aF-513.3
aF-723.4
aF-662.1
aF-582.2
aF-625.6
aF-624.7
aF-622.1
aF-547.6
aF-674.9
aF-519.4
aF-486.1
aF-578.2
aF-658.8
aF-535.7
aF-555.9
aF-773.1
aF-615.8
aF-681.2
aF-539.3
aF-519.9
aF-651.3
aF-667.2
aF-583.3
aF-584.9
aF-722.6
aF-515.2
aF-451.5
aF-534.0
aF-651.1
aF-611.4
aF-543.5
aF-564.0
aF-613.7
aF-658.3
aF-670.1
aF-702.6
aF-525.1
aF-577.9
aF-550.6
atp173
a(g1
(g2
(I0
tp174
g4
tp175
Rp176
(I1
(I4
tp177
g8
(S'f8'
p178
I0
I1
tp179
Rp180
(I3
S'<'
p181
NNNI-1
I-1
I0
tp182
bI00
S"\xd0\xa5]a47'@\r\x82\xbc\x95\xbf%$@\xf31\xdc\xbd\xef\xc9\xef?\xed\x17\x10{\xea\xd3\x8e@"
p183
tp184
b(lp185
F-483.8
aF-607.8
aF-743.2
aF-729.2
aF-498.7
aF-368.9
aF-638.8
aF-459.4
aF-564.1
aF-687.8
aF-436.1
aF-770.0
aF-444.8
aF-473.7
aF-610.0
aF-503.5
aF-439.9
aF-554.3
aF-580.7
aF-390.4
aF-424.7
aF-563.3
aF-444.7
aF-465.3
aF-624.2
aF-638.2
aF-550.1
aF-597.9
aF-445.6
aF-459.9
aF-394.5
aF-601.1
aF-518.8
aF-422.7
aF-557.6
aF-471.3
aF-535.4
aF-629.3
aF-443.8
aF-518.2
aF-539.6
aF-428.2
aF-446.7
aF-563.1
aF-520.3
aF-748.5
aF-601.1
aF-510.5
aF-619.4
aF-653.3
aF-448.6
aF-414.7
aF-521.6
aF-437.6
aF-529.9
aF-604.5
aF-496.5
aF-495.0
aF-485.3
aF-503.7
aF-523.8
aF-541.0
aF-560.9
aF-620.8
aF-476.8
aF-654.9
aF-445.1
aF-506.7
aF-589.6
aF-564.4
aF-588.4
aF-674.2
aF-549.2
aF-575.2
aF-508.6
aF-563.0
aF-505.3
aF-525.6
aF-424.7
aF-472.7
aF-412.4
aF-550.1
aF-635.5
aF-713.7
aF-644.8
aF-603.0
aF-568.7
aF-582.8
aF-657.7
aF-472.8
aF-595.2
aF-585.5
aF-554.2
aF-447.4
aF-653.0
aF-529.2
aF-537.6
aF-431.8
aF-455.9
aF-599.9
aF-507.2
atp186
a(g1
(g2
(I0
tp187
g4
tp188
Rp189
(I1
(I4
tp190
g8
(S'f8'
p191
I0
I1
tp192
Rp193
(I3
S'<'
p194
NNNI-1
I-1
I0
tp195
bI00
S"\xf4\xc3\xafL\xc2\xa1!@g\xbc'p=\xdd#@\x96\xd3\x94\xa9\xe4O\xf8?5\xd3\xdf1~\x9d\x88@"
p196
tp197
b(lp198
F-566.2
aF-662.5
aF-454.3
aF-572.2
aF-532.5
aF-731.9
aF-552.3
aF-733.1
aF-541.2
aF-706.1
aF-554.1
aF-593.4
aF-676.3
aF-567.0
aF-811.6
aF-632.4
aF-536.2
aF-545.8
aF-545.7
aF-463.7
aF-513.5
aF-634.7
aF-555.1
aF-506.7
aF-570.8
aF-564.0
aF-729.1
aF-580.5
aF-514.1
aF-404.9
aF-669.2
aF-630.2
aF-658.3
aF-673.6
aF-578.1
aF-539.2
aF-484.7
aF-575.4
aF-593.9
aF-484.9
aF-502.9
aF-717.1
aF-452.2
aF-485.9
aF-592.1
aF-587.5
aF-514.9
aF-576.4
aF-387.5
aF-488.2
aF-417.1
aF-605.8
aF-405.9
aF-595.4
aF-791.1
aF-507.1
aF-677.9
aF-500.1
aF-600.6
aF-478.9
aF-704.4
aF-629.0
aF-608.6
aF-557.0
aF-550.2
aF-601.2
aF-582.0
aF-503.1
aF-490.2
aF-824.7
aF-482.1
aF-524.2
aF-677.3
aF-539.1
aF-434.6
aF-680.6
aF-702.4
aF-746.0
aF-552.6
aF-637.6
aF-722.4
aF-517.0
aF-532.5
aF-708.2
aF-582.8
aF-625.4
aF-584.2
aF-611.7
aF-499.3
aF-568.0
aF-568.6
aF-485.2
aF-518.5
aF-474.8
aF-561.9
aF-602.5
aF-502.3
aF-628.3
aF-770.6
aF-814.6
aF-529.7
atp199
a(g1
(g2
(I0
tp200
g4
tp201
Rp202
(I1
(I4
tp203
g8
(S'f8'
p204
I0
I1
tp205
Rp206
(I3
S'<'
p207
NNNI-1
I-1
I0
tp208
bI00
S'\xefL\xfb\xbe#\xe3"@\xb0\x0b\xbb)\xf03$@\xea\xc6\x89\x86P\x85\xfb\xbf)S\xed\x1b<+\x82@'
p209
tp210
b(lp211
F-415.0
aF-617.0
aF-797.4
aF-619.0
aF-654.1
aF-734.1
aF-665.2
aF-582.9
aF-645.5
aF-648.1
aF-647.3
aF-515.8
aF-595.5
aF-516.0
aF-750.9
aF-666.0
aF-834.7
aF-833.4
aF-872.8
aF-516.5
aF-530.6
aF-640.7
aF-663.6
aF-701.2
aF-626.6
aF-663.7
aF-710.1
aF-702.1
aF-599.8
aF-641.6
aF-703.8
aF-542.4
aF-675.8
aF-676.1
aF-606.2
aF-441.9
aF-649.9
aF-736.4
aF-668.3
aF-471.5
aF-692.5
aF-679.9
aF-650.7
aF-535.0
aF-758.9
aF-518.5
aF-739.0
aF-640.3
aF-656.6
aF-765.4
aF-520.2
aF-597.9
aF-766.3
aF-713.4
aF-769.8
aF-560.4
aF-578.8
aF-612.6
aF-672.4
aF-622.6
aF-577.3
aF-679.0
aF-675.1
aF-680.5
aF-673.4
aF-756.8
aF-695.7
aF-531.0
aF-665.0
aF-588.1
aF-704.4
aF-738.2
aF-582.8
aF-543.4
aF-742.6
aF-568.4
aF-826.0
aF-733.3
aF-602.1
aF-764.3
aF-721.4
aF-619.4
aF-662.6
aF-535.5
aF-658.2
aF-583.4
aF-649.8
aF-588.9
aF-674.6
aF-555.6
aF-568.1
aF-404.8
aF-519.3
aF-526.9
aF-588.7
aF-616.8
aF-608.7
aF-646.0
aF-440.5
aF-708.3
aF-670.8
atp212
a(g1
(g2
(I0
tp213
g4
tp214
Rp215
(I1
(I4
tp216
g8
(S'f8'
p217
I0
I1
tp218
Rp219
(I3
S'<'
p220
NNNI-1
I-1
I0
tp221
bI00
S'\xe2\xbfh\xe1\xfa\x18%@\xdb\xab\xa60+\xa7"@\x0c\xdf\x02\xef\xf5\xc9\xf1?\xef\x80\x15\x99L\xcb\x8a@'
p222
tp223
b(lp224
F-658.2
aF-440.8
aF-513.6
aF-528.0
aF-560.9
aF-607.5
aF-571.0
aF-650.1
aF-536.4
aF-409.0
aF-579.4
aF-602.5
aF-566.7
aF-629.9
aF-578.9
aF-582.6
aF-804.9
aF-597.0
aF-628.5
aF-543.2
aF-723.0
aF-564.7
aF-720.6
aF-586.0
aF-505.8
aF-557.9
aF-677.9
aF-465.3
aF-526.3
aF-604.7
aF-496.5
aF-701.2
aF-733.8
aF-684.9
aF-551.0
aF-725.7
aF-462.2
aF-702.7
aF-436.4
aF-542.7
aF-429.6
aF-696.4
aF-636.4
aF-643.0
aF-501.2
aF-513.0
aF-475.6
aF-566.9
aF-738.0
aF-487.4
aF-485.7
aF-645.0
aF-669.0
aF-493.8
aF-576.2
aF-681.4
aF-732.4
aF-516.0
aF-655.8
aF-521.6
aF-619.7
aF-762.5
aF-555.6
aF-482.4
aF-556.8
aF-572.0
aF-623.3
aF-552.2
aF-424.5
aF-625.2
aF-485.0
aF-418.0
aF-522.5
aF-562.6
aF-656.8
aF-551.7
aF-462.9
aF-525.5
aF-489.3
aF-611.1
aF-551.7
aF-615.4
aF-562.9
aF-407.5
aF-620.0
aF-716.5
aF-585.5
aF-582.9
aF-606.0
aF-537.0
aF-488.4
aF-645.7
aF-446.6
aF-449.5
aF-558.6
aF-461.7
aF-609.4
aF-485.4
aF-524.8
aF-555.0
aF-430.2
atp225
a(g1
(g2
(I0
tp226
g4
tp227
Rp228
(I1
(I4
tp229
g8
(S'f8'
p230
I0
I1
tp231
Rp232
(I3
S'<'
p233
NNNI-1
I-1
I0
tp234
bI00
S'\xe8\x01-<\xbc?"@\xd2\xf8S@[\xcd&@\x97\x0fd\xb7%\x00\xfc?\x9c\x02GJ\xea\x08\x8a@'
p235
tp236
b(lp237
F-698.7
aF-691.1
aF-604.7
aF-627.2
aF-744.0
aF-731.2
aF-547.0
aF-576.0
aF-689.2
aF-645.5
aF-634.2
aF-787.5
aF-623.3
aF-520.2
aF-673.4
aF-694.9
aF-680.3
aF-464.2
aF-581.6
aF-572.0
aF-590.8
aF-428.8
aF-607.8
aF-581.9
aF-708.1
aF-580.6
aF-693.9
aF-628.7
aF-607.5
aF-550.0
aF-578.3
aF-720.0
aF-686.5
aF-593.3
aF-801.1
aF-488.8
aF-501.9
aF-482.9
aF-655.5
aF-796.4
aF-660.7
aF-548.8
aF-674.9
aF-492.4
aF-425.8
aF-687.7
aF-663.3
aF-525.5
aF-694.4
aF-582.0
aF-590.4
aF-530.3
aF-683.3
aF-739.1
aF-506.2
aF-614.7
aF-546.9
aF-442.7
aF-470.9
aF-475.3
aF-474.9
aF-677.1
aF-405.7
aF-649.3
aF-603.8
aF-713.2
aF-647.9
aF-668.0
aF-472.3
aF-629.6
aF-498.8
aF-453.7
aF-633.7
aF-588.3
aF-618.6
aF-688.5
aF-522.4
aF-589.8
aF-503.8
aF-569.8
aF-652.8
aF-545.4
aF-696.6
aF-746.7
aF-725.7
aF-486.5
aF-734.5
aF-511.8
aF-661.2
aF-580.1
aF-622.7
aF-714.9
aF-626.5
aF-465.1
aF-664.3
aF-577.8
aF-514.4
aF-502.5
aF-460.8
aF-622.2
aF-561.6
atp238
a(g1
(g2
(I0
tp239
g4
tp240
Rp241
(I1
(I4
tp242
g8
(S'f8'
p243
I0
I1
tp244
Rp245
(I3
S'<'
p246
NNNI-1
I-1
I0
tp247
bI00
S'c\x03\x8e\xef\x18,%@+\x8a\xdf\x7f\x9bp"@\x8f\x7f\x1e\xed\xb4\xa3\xf7?\xba\x90c\x0e\xcd\xcd\x85@'
p248
tp249
b(lp250
F-614.9
aF-667.3
aF-597.1
aF-553.0
aF-642.1
aF-593.5
aF-536.0
aF-540.0
aF-701.0
aF-541.5
aF-515.8
aF-643.5
aF-750.3
aF-583.8
aF-473.1
aF-450.2
aF-681.2
aF-483.6
aF-697.5
aF-688.7
aF-471.4
aF-708.4
aF-516.7
aF-799.4
aF-460.5
aF-710.4
aF-637.8
aF-581.3
aF-709.1
aF-541.6
aF-629.0
aF-667.0
aF-611.5
aF-642.4
aF-690.9
aF-504.7
aF-555.1
aF-627.7
aF-688.0
aF-556.3
aF-671.1
aF-434.7
aF-568.3
aF-599.5
aF-630.1
aF-680.1
aF-559.1
aF-706.5
aF-598.1
aF-497.4
aF-730.5
aF-645.3
aF-619.2
aF-853.4
aF-680.9
aF-640.7
aF-476.8
aF-491.8
aF-643.5
aF-581.1
aF-374.4
aF-455.6
aF-500.3
aF-651.6
aF-625.8
aF-492.4
aF-591.2
aF-609.9
aF-722.6
aF-678.0
aF-596.5
aF-560.6
aF-673.8
aF-517.7
aF-521.7
aF-666.8
aF-578.9
aF-674.1
aF-615.6
aF-463.8
aF-654.1
aF-520.1
aF-607.1
aF-516.1
aF-606.6
aF-568.7
aF-588.4
aF-760.9
aF-657.4
aF-452.1
aF-540.2
aF-601.2
aF-481.8
aF-523.6
aF-478.6
aF-566.9
aF-538.8
aF-633.9
aF-486.4
aF-488.3
aF-477.5
atp251
a(g1
(g2
(I0
tp252
g4
tp253
Rp254
(I1
(I4
tp255
g8
(S'f8'
p256
I0
I1
tp257
Rp258
(I3
S'<'
p259
NNNI-1
I-1
I0
tp260
bI00
S'\xb4\x8f\'z\xed\x08$@&\xb7\x11\x19\x17\x04"@\xe1\x0b\x8e\xd7\xcf\xf1\x03@\x02]\xd9"\xe8J\x91@'
p261
tp262
b(lp263
F-542.6
aF-675.7
aF-632.9
aF-633.6
aF-722.0
aF-582.1
aF-571.9
aF-522.2
aF-455.5
aF-543.4
aF-565.9
aF-607.0
aF-542.2
aF-544.1
aF-626.7
aF-519.4
aF-517.1
aF-419.4
aF-539.6
aF-434.3
aF-455.1
aF-470.8
aF-547.1
aF-538.6
aF-520.5
aF-464.8
aF-517.5
aF-479.1
aF-589.7
aF-584.2
aF-531.4
aF-676.7
aF-582.0
aF-535.5
aF-492.6
aF-481.5
aF-553.0
aF-707.4
aF-536.3
aF-561.3
aF-578.8
aF-586.3
aF-603.8
aF-481.4
aF-533.3
aF-632.6
aF-625.5
aF-490.8
aF-644.6
aF-496.0
aF-543.6
aF-507.2
aF-427.6
aF-528.0
aF-628.6
aF-555.5
aF-645.6
aF-555.3
aF-569.5
aF-376.7
aF-409.1
aF-712.9
aF-414.8
aF-515.4
aF-498.8
aF-469.5
aF-572.0
aF-554.6
aF-467.7
aF-583.5
aF-541.8
aF-491.8
aF-516.2
aF-544.0
aF-486.9
aF-533.0
aF-613.8
aF-456.2
aF-570.8
aF-562.1
aF-539.4
aF-404.0
aF-464.9
aF-684.9
aF-568.1
aF-444.8
aF-564.7
aF-464.1
aF-473.5
aF-476.5
aF-547.8
aF-601.5
aF-534.6
aF-454.9
aF-454.4
aF-508.8
aF-543.5
aF-501.2
aF-579.8
aF-532.1
aF-546.3
atp264
a(g1
(g2
(I0
tp265
g4
tp266
Rp267
(I1
(I4
tp268
g8
(S'f8'
p269
I0
I1
tp270
Rp271
(I3
S'<'
p272
NNNI-1
I-1
I0
tp273
bI00
S'\x9f\xfdr\x8f\xa1\x15"@6\x84\xfe\xb3.\xee#@\xe3}\xce\xc0\xde&\xd4?\x9djm\x12\xcb\xfd\x86@'
p274
tp275
b(lp276
F-634.4
aF-607.1
aF-568.4
aF-678.2
aF-725.4
aF-494.8
aF-543.5
aF-751.7
aF-573.8
aF-559.4
aF-610.6
aF-620.1
aF-671.2
aF-702.2
aF-628.0
aF-541.9
aF-638.4
aF-535.7
aF-582.4
aF-558.8
aF-553.2
aF-543.8
aF-778.0
aF-725.3
aF-589.7
aF-652.5
aF-610.8
aF-426.6
aF-562.0
aF-644.0
aF-797.6
aF-552.0
aF-500.0
aF-559.6
aF-597.0
aF-604.0
aF-733.1
aF-563.2
aF-604.9
aF-612.4
aF-648.4
aF-538.9
aF-725.4
aF-702.8
aF-598.3
aF-610.5
aF-650.7
aF-549.3
aF-612.6
aF-471.9
aF-554.6
aF-711.0
aF-665.6
aF-569.6
aF-633.8
aF-478.0
aF-667.0
aF-554.2
aF-589.1
aF-623.2
aF-683.9
aF-559.5
aF-522.2
aF-639.0
aF-546.8
aF-616.4
aF-521.8
aF-619.4
aF-474.1
aF-538.5
aF-644.1
aF-706.1
aF-473.1
aF-608.9
aF-502.3
aF-630.9
aF-512.6
aF-553.1
aF-449.8
aF-645.8
aF-638.1
aF-627.4
aF-454.9
aF-529.5
aF-572.5
aF-562.1
aF-573.7
aF-732.6
aF-528.3
aF-585.5
aF-521.1
aF-813.7
aF-514.9
aF-656.1
aF-661.5
aF-555.6
aF-526.2
aF-663.2
aF-580.8
aF-618.5
aF-610.9
atp277
a(g1
(g2
(I0
tp278
g4
tp279
Rp280
(I1
(I4
tp281
g8
(S'f8'
p282
I0
I1
tp283
Rp284
(I3
S'<'
p285
NNNI-1
I-1
I0
tp286
bI00
S'\xaf\xeb\xfd\x1a\x194%@\xac\xca(,\x1e\xa0$@LG,x\xd8[\xe4?\x1b\xf3"\xac\xd7\x10\x88@'
p287
tp288
b(lp289
F-577.2
aF-712.2
aF-542.9
aF-471.3
aF-585.7
aF-517.4
aF-480.7
aF-604.1
aF-598.1
aF-712.0
aF-582.7
aF-641.9
aF-546.9
aF-748.8
aF-515.8
aF-682.4
aF-645.9
aF-650.2
aF-679.5
aF-522.8
aF-585.0
aF-780.0
aF-830.3
aF-672.3
aF-667.4
aF-562.3
aF-590.7
aF-682.9
aF-563.4
aF-651.1
aF-710.9
aF-584.3
aF-507.3
aF-545.6
aF-563.5
aF-551.3
aF-634.0
aF-605.3
aF-555.7
aF-593.2
aF-484.8
aF-512.3
aF-664.2
aF-480.9
aF-681.0
aF-620.2
aF-488.6
aF-707.6
aF-811.4
aF-615.9
aF-663.6
aF-529.2
aF-565.6
aF-641.6
aF-501.6
aF-721.3
aF-609.5
aF-714.6
aF-577.0
aF-467.5
aF-574.0
aF-582.1
aF-630.2
aF-580.2
aF-570.3
aF-586.8
aF-844.8
aF-447.3
aF-656.7
aF-651.3
aF-575.8
aF-690.4
aF-550.5
aF-626.6
aF-564.2
aF-538.3
aF-554.3
aF-598.1
aF-648.3
aF-611.0
aF-544.9
aF-635.7
aF-436.2
aF-620.8
aF-699.1
aF-478.2
aF-617.1
aF-654.8
aF-520.7
aF-485.6
aF-569.9
aF-508.3
aF-594.2
aF-563.0
aF-487.7
aF-556.6
aF-649.1
aF-571.7
aF-537.3
aF-528.6
aF-629.8
atp290
a(g1
(g2
(I0
tp291
g4
tp292
Rp293
(I1
(I4
tp294
g8
(S'f8'
p295
I0
I1
tp296
Rp297
(I3
S'<'
p298
NNNI-1
I-1
I0
tp299
bI00
S' \xc6\xcb\x1b\x1c\x89#@\x94\xb1z\xfeg\\#@\xa0\xd1\x80\x1c\xd1\x9f\xe6?-\x07\xaf\x8e\x04\xee\x89@'
p300
tp301
b(lp302
F-897.9
aF-756.1
aF-672.4
aF-682.0
aF-604.6
aF-489.6
aF-577.0
aF-623.7
aF-694.6
aF-767.3
aF-652.7
aF-506.7
aF-636.2
aF-665.7
aF-555.9
aF-474.0
aF-678.7
aF-728.3
aF-579.8
aF-635.7
aF-598.2
aF-392.6
aF-605.2
aF-555.8
aF-770.3
aF-698.5
aF-450.3
aF-644.7
aF-480.3
aF-620.3
aF-548.7
aF-554.8
aF-636.8
aF-601.8
aF-604.0
aF-508.7
aF-667.3
aF-609.0
aF-589.3
aF-744.1
aF-581.6
aF-680.5
aF-718.7
aF-724.6
aF-604.5
aF-707.0
aF-621.4
aF-658.6
aF-575.5
aF-512.7
aF-785.1
aF-704.5
aF-657.8
aF-603.7
aF-506.3
aF-527.8
aF-642.8
aF-839.8
aF-661.0
aF-476.1
aF-595.3
aF-727.6
aF-550.0
aF-707.5
aF-603.9
aF-582.8
aF-456.5
aF-452.2
aF-770.9
aF-773.2
aF-531.7
aF-563.3
aF-533.8
aF-616.5
aF-761.5
aF-554.4
aF-772.5
aF-598.5
aF-533.2
aF-427.6
aF-587.0
aF-605.8
aF-641.1
aF-470.0
aF-601.0
aF-711.6
aF-568.7
aF-588.0
aF-529.3
aF-389.2
aF-548.8
aF-587.6
aF-590.9
aF-524.9
aF-437.3
aF-501.7
aF-629.9
aF-493.5
aF-803.4
aF-583.4
aF-644.0
atp303
a(g1
(g2
(I0
tp304
g4
tp305
Rp306
(I1
(I4
tp307
g8
(S'f8'
p308
I0
I1
tp309
Rp310
(I3
S'<'
p311
NNNI-1
I-1
I0
tp312
bI00
S'l\xff\t\xd3\xacE"@}\x86LQR\xcb#@\x97\xc4Q\xcc)k\xd2?\xb5\xf8!\xc9\x89c\x88@'
p313
tp314
b(lp315
F-685.9
aF-757.2
aF-592.4
aF-476.3
aF-700.6
aF-538.9
aF-599.6
aF-578.0
aF-661.5
aF-531.3
aF-678.2
aF-481.3
aF-704.1
aF-503.3
aF-532.8
aF-670.3
aF-671.4
aF-596.4
aF-542.3
aF-509.5
aF-632.4
aF-739.0
aF-511.4
aF-657.2
aF-517.6
aF-518.4
aF-641.0
aF-632.3
aF-476.2
aF-606.2
aF-518.1
aF-606.0
aF-722.3
aF-467.6
aF-701.9
aF-643.9
aF-617.6
aF-797.9
aF-589.5
aF-569.8
aF-546.7
aF-668.2
aF-579.4
aF-656.3
aF-810.1
aF-567.4
aF-577.3
aF-708.6
aF-610.2
aF-490.2
aF-470.2
aF-686.7
aF-548.0
aF-605.7
aF-506.9
aF-522.0
aF-532.4
aF-580.3
aF-572.5
aF-613.1
aF-621.5
aF-694.9
aF-511.8
aF-582.0
aF-595.3
aF-616.3
aF-550.6
aF-505.6
aF-580.4
aF-515.4
aF-419.8
aF-668.8
aF-536.5
aF-621.8
aF-487.6
aF-447.9
aF-588.1
aF-626.4
aF-462.1
aF-576.8
aF-739.5
aF-481.4
aF-661.2
aF-574.3
aF-621.6
aF-520.2
aF-493.6
aF-549.9
aF-526.6
aF-604.2
aF-714.3
aF-660.0
aF-572.5
aF-590.0
aF-497.7
aF-510.0
aF-578.0
aF-537.9
aF-631.9
aF-682.3
aF-697.2
atp316
a(g1
(g2
(I0
tp317
g4
tp318
Rp319
(I1
(I4
tp320
g8
(S'f8'
p321
I0
I1
tp322
Rp323
(I3
S'<'
p324
NNNI-1
I-1
I0
tp325
bI00
S'\xed2\xe7\x8ap\xcd#@\xb7\xae\xd1\xa3\x078%@\xe5\xaa\xa9\x05!r\xf0\xbf\xed\x82H\xfcn\x97\x85@'
p326
tp327
b(lp328
F-667.7
aF-847.4
aF-567.3
aF-786.3
aF-666.1
aF-658.9
aF-653.8
aF-609.8
aF-629.7
aF-646.9
aF-623.6
aF-633.0
aF-685.6
aF-611.2
aF-610.5
aF-555.6
aF-536.3
aF-555.1
aF-482.7
aF-574.9
aF-702.7
aF-520.3
aF-647.0
aF-620.2
aF-654.2
aF-632.4
aF-756.2
aF-633.4
aF-652.1
aF-677.9
aF-683.0
aF-623.1
aF-633.9
aF-506.2
aF-497.7
aF-634.7
aF-605.9
aF-684.3
aF-529.5
aF-571.4
aF-661.0
aF-631.0
aF-587.6
aF-659.5
aF-564.7
aF-813.0
aF-663.2
aF-585.0
aF-552.5
aF-560.3
aF-564.6
aF-536.3
aF-647.3
aF-714.7
aF-578.4
aF-491.2
aF-512.0
aF-646.2
aF-534.8
aF-621.7
aF-583.4
aF-502.4
aF-618.6
aF-543.1
aF-660.3
aF-556.0
aF-692.5
aF-674.7
aF-594.8
aF-458.9
aF-544.3
aF-542.5
aF-608.9
aF-551.4
aF-592.7
aF-576.1
aF-528.5
aF-681.0
aF-658.0
aF-702.0
aF-511.7
aF-618.7
aF-628.8
aF-554.3
aF-590.2
aF-562.2
aF-661.2
aF-708.7
aF-686.5
aF-559.2
aF-701.0
aF-629.6
aF-762.4
aF-491.5
aF-702.9
aF-596.1
aF-596.5
aF-553.0
aF-667.6
aF-593.3
aF-592.9
atp329
a(g1
(g2
(I0
tp330
g4
tp331
Rp332
(I1
(I4
tp333
g8
(S'f8'
p334
I0
I1
tp335
Rp336
(I3
S'<'
p337
NNNI-1
I-1
I0
tp338
bI00
S'\xd0\x9b\xfc\xbc\xd2\x85"@2\xf4\xe4\xe7<L%@(\xfd\xc0cz\xeb\xf4?\xaa\xbc)xN!\x85@'
p339
tp340
b(lp341
F-819.6
aF-834.9
aF-577.0
aF-539.9
aF-471.3
aF-683.2
aF-670.7
aF-643.7
aF-551.8
aF-505.4
aF-555.3
aF-588.0
aF-388.3
aF-544.0
aF-569.0
aF-477.0
aF-666.7
aF-542.6
aF-834.3
aF-575.8
aF-672.4
aF-657.0
aF-556.2
aF-723.7
aF-576.0
aF-592.2
aF-612.4
aF-800.3
aF-679.3
aF-536.7
aF-560.3
aF-545.2
aF-526.0
aF-691.9
aF-575.6
aF-563.7
aF-703.9
aF-643.9
aF-631.9
aF-717.2
aF-468.0
aF-709.3
aF-673.7
aF-556.0
aF-770.4
aF-429.1
aF-637.0
aF-709.8
aF-576.0
aF-745.8
aF-614.7
aF-567.7
aF-670.5
aF-635.6
aF-545.2
aF-515.2
aF-658.7
aF-736.4
aF-403.0
aF-579.0
aF-681.9
aF-570.0
aF-448.8
aF-473.8
aF-731.2
aF-735.5
aF-618.1
aF-534.6
aF-632.1
aF-544.8
aF-571.6
aF-654.5
aF-673.1
aF-721.5
aF-628.1
aF-553.5
aF-645.7
aF-633.5
aF-590.3
aF-566.6
aF-620.6
aF-628.6
aF-503.2
aF-633.7
aF-562.1
aF-632.8
aF-506.9
aF-633.5
aF-613.5
aF-672.9
aF-651.4
aF-616.8
aF-595.3
aF-559.1
aF-643.3
aF-533.2
aF-638.6
aF-768.2
aF-636.4
aF-767.2
aF-680.1
atp342
a(g1
(g2
(I0
tp343
g4
tp344
Rp345
(I1
(I4
tp346
g8
(S'f8'
p347
I0
I1
tp348
Rp349
(I3
S'<'
p350
NNNI-1
I-1
I0
tp351
bI00
S'\x0f\xcd\xc6Ry4!@\xa0r>Qb\xcc"@\x0c\x96o<\xee\x17\xfc\xbf\x85k\xe1d8\xba\x8f@'
p352
tp353
b(lp354
F-690.9
aF-556.6
aF-706.0
aF-614.3
aF-467.4
aF-579.7
aF-516.3
aF-461.8
aF-693.1
aF-701.8
aF-641.7
aF-529.5
aF-626.9
aF-632.5
aF-583.8
aF-447.2
aF-464.7
aF-698.4
aF-618.7
aF-516.4
aF-611.8
aF-603.1
aF-586.1
aF-466.0
aF-534.3
aF-644.6
aF-599.4
aF-588.1
aF-607.4
aF-577.2
aF-506.2
aF-562.9
aF-576.6
aF-491.4
aF-647.3
aF-445.6
aF-558.2
aF-585.9
aF-750.3
aF-442.7
aF-528.4
aF-463.9
aF-487.3
aF-453.7
aF-572.9
aF-580.0
aF-504.1
aF-592.5
aF-432.4
aF-401.4
aF-525.0
aF-625.0
aF-539.8
aF-423.6
aF-696.2
aF-496.5
aF-526.9
aF-519.7
aF-598.0
aF-570.8
aF-605.5
aF-495.8
aF-436.8
aF-631.0
aF-618.6
aF-409.3
aF-653.3
aF-495.9
aF-601.9
aF-507.7
aF-608.5
aF-497.9
aF-582.7
aF-420.1
aF-425.6
aF-580.8
aF-347.5
aF-476.4
aF-567.8
aF-514.2
aF-551.3
aF-510.9
aF-452.6
aF-651.2
aF-432.2
aF-414.9
aF-719.2
aF-560.0
aF-584.8
aF-496.6
aF-561.1
aF-482.7
aF-504.3
aF-536.8
aF-654.4
aF-571.3
aF-519.9
aF-603.2
aF-465.1
aF-635.3
aF-435.4
atp355
a(g1
(g2
(I0
tp356
g4
tp357
Rp358
(I1
(I4
tp359
g8
(S'f8'
p360
I0
I1
tp361
Rp362
(I3
S'<'
p363
NNNI-1
I-1
I0
tp364
bI00
S"\xdc\x8fe\x83\xd4\xec#@\x8d]\xa4i\x05\x83'@L\xe1\x00.\xb6\x84\xde?\xe7\xd6\xea\x9aV\xb1\x8b@"
p365
tp366
b(lp367
F-575.3
aF-553.9
aF-551.5
aF-543.3
aF-527.5
aF-683.1
aF-597.7
aF-618.2
aF-631.6
aF-757.3
aF-597.3
aF-619.8
aF-762.5
aF-490.6
aF-490.9
aF-563.5
aF-806.8
aF-577.2
aF-487.6
aF-551.6
aF-735.8
aF-708.7
aF-534.4
aF-564.6
aF-733.1
aF-576.6
aF-413.2
aF-488.7
aF-548.4
aF-485.6
aF-642.1
aF-458.0
aF-562.8
aF-579.1
aF-515.4
aF-776.6
aF-528.0
aF-421.8
aF-628.6
aF-578.0
aF-595.3
aF-559.2
aF-563.2
aF-515.4
aF-454.5
aF-688.3
aF-468.5
aF-494.3
aF-534.6
aF-542.8
aF-708.5
aF-529.6
aF-631.5
aF-528.4
aF-512.3
aF-697.6
aF-537.7
aF-516.8
aF-744.3
aF-592.9
aF-428.5
aF-505.6
aF-693.1
aF-484.9
aF-611.7
aF-468.0
aF-511.8
aF-548.7
aF-441.0
aF-497.5
aF-428.2
aF-499.9
aF-526.7
aF-434.1
aF-551.2
aF-517.0
aF-482.5
aF-418.2
aF-569.0
aF-574.4
aF-662.3
aF-506.1
aF-737.7
aF-565.2
aF-494.0
aF-523.2
aF-483.2
aF-524.5
aF-613.6
aF-481.9
aF-596.8
aF-505.9
aF-499.1
aF-635.0
aF-529.6
aF-509.1
aF-575.1
aF-506.8
aF-558.1
aF-595.0
aF-570.5
atp368
a(g1
(g2
(I0
tp369
g4
tp370
Rp371
(I1
(I4
tp372
g8
(S'f8'
p373
I0
I1
tp374
Rp375
(I3
S'<'
p376
NNNI-1
I-1
I0
tp377
bI00
S'\xc6\xb2\xe4\x7fp\x08&@1ob\x19d\x87%@\x81\xe0;\xf5\x18\xbb\xf8?\x83\xa5\xde:X\xd7\x89@'
p378
tp379
b(lp380
F-588.5
aF-601.9
aF-562.4
aF-695.7
aF-612.3
aF-561.0
aF-539.3
aF-696.8
aF-700.1
aF-474.1
aF-673.2
aF-775.8
aF-547.8
aF-491.7
aF-703.5
aF-516.2
aF-554.4
aF-602.0
aF-520.0
aF-621.6
aF-655.1
aF-561.5
aF-544.4
aF-693.5
aF-589.9
aF-530.5
aF-623.9
aF-775.7
aF-652.1
aF-499.8
aF-470.9
aF-644.9
aF-636.6
aF-464.0
aF-749.7
aF-455.5
aF-664.7
aF-586.6
aF-596.4
aF-709.2
aF-522.3
aF-629.6
aF-509.6
aF-573.8
aF-553.1
aF-751.6
aF-666.5
aF-464.1
aF-544.2
aF-510.8
aF-660.3
aF-574.5
aF-606.5
aF-600.4
aF-650.1
aF-628.7
aF-582.6
aF-484.0
aF-533.5
aF-438.3
aF-648.9
aF-577.2
aF-519.9
aF-462.6
aF-678.0
aF-600.0
aF-594.8
aF-658.1
aF-642.6
aF-503.6
aF-482.7
aF-731.9
aF-690.5
aF-440.9
aF-392.7
aF-535.6
aF-654.6
aF-613.9
aF-600.9
aF-639.3
aF-487.6
aF-402.7
aF-598.1
aF-502.9
aF-668.9
aF-573.6
aF-552.2
aF-651.5
aF-632.5
aF-687.4
aF-482.2
aF-447.2
aF-653.6
aF-637.8
aF-541.3
aF-550.9
aF-644.7
aF-655.7
aF-691.9
aF-734.3
aF-702.9
atp381
a(g1
(g2
(I0
tp382
g4
tp383
Rp384
(I1
(I4
tp385
g8
(S'f8'
p386
I0
I1
tp387
Rp388
(I3
S'<'
p389
NNNI-1
I-1
I0
tp390
bI00
S'<\x0b"\xc5\'\xbc#@\xe0\xec\xfd\xf9M\xed"@\x1b\x10\xa0z\x13R\xce?\x80\xee\xb5f\xad\x12\x89@'
p391
tp392
b(lp393
F-730.2
aF-615.7
aF-456.2
aF-520.2
aF-605.6
aF-665.7
aF-671.0
aF-775.6
aF-540.9
aF-487.0
aF-658.8
aF-657.4
aF-569.8
aF-596.5
aF-433.2
aF-555.0
aF-681.6
aF-708.1
aF-658.8
aF-639.9
aF-512.7
aF-592.8
aF-645.2
aF-579.9
aF-486.0
aF-632.4
aF-607.0
aF-532.9
aF-644.3
aF-538.1
aF-655.9
aF-639.0
aF-568.8
aF-596.2
aF-578.1
aF-495.8
aF-531.8
aF-683.5
aF-529.5
aF-561.2
aF-755.0
aF-515.4
aF-713.9
aF-615.4
aF-602.5
aF-684.9
aF-426.4
aF-487.2
aF-779.5
aF-607.2
aF-450.4
aF-572.3
aF-724.8
aF-549.8
aF-554.9
aF-445.7
aF-602.5
aF-653.2
aF-566.8
aF-684.6
aF-655.4
aF-444.1
aF-671.2
aF-677.8
aF-556.3
aF-559.9
aF-488.2
aF-659.0
aF-511.8
aF-416.1
aF-801.4
aF-559.2
aF-514.0
aF-570.4
aF-574.4
aF-563.3
aF-680.5
aF-549.8
aF-663.1
aF-622.0
aF-501.0
aF-611.2
aF-716.9
aF-629.8
aF-647.9
aF-608.7
aF-624.3
aF-636.1
aF-647.2
aF-489.9
aF-639.0
aF-624.3
aF-592.7
aF-570.7
aF-534.9
aF-577.2
aF-572.1
aF-529.2
aF-496.4
aF-605.5
aF-590.5
atp394
a(g1
(g2
(I0
tp395
g4
tp396
Rp397
(I1
(I4
tp398
g8
(S'f8'
p399
I0
I1
tp400
Rp401
(I3
S'<'
p402
NNNI-1
I-1
I0
tp403
bI00
S'\\[\x9c\xda\x1bL#@\xf6\xee\x11\xf4\xb9+#@\xb0\xe5\xf1\x95\x08n\xf4?\x14\x89N\xa2\xf8\xc0\x86@'
p404
tp405
b(lp406
F-692.2
aF-616.6
aF-638.2
aF-493.4
aF-552.9
aF-474.4
aF-568.6
aF-693.6
aF-724.9
aF-683.1
aF-574.6
aF-708.3
aF-428.3
aF-668.5
aF-702.4
aF-532.9
aF-581.1
aF-653.8
aF-661.7
aF-546.8
aF-607.8
aF-490.2
aF-623.6
aF-516.3
aF-427.3
aF-570.0
aF-743.9
aF-526.9
aF-463.5
aF-618.5
aF-546.8
aF-569.1
aF-795.1
aF-507.5
aF-726.9
aF-696.2
aF-519.0
aF-673.3
aF-627.8
aF-566.0
aF-602.2
aF-628.8
aF-625.1
aF-560.3
aF-672.2
aF-608.2
aF-606.4
aF-664.4
aF-659.1
aF-520.9
aF-597.5
aF-620.9
aF-427.9
aF-554.6
aF-591.3
aF-641.5
aF-600.1
aF-780.8
aF-451.2
aF-641.7
aF-645.3
aF-493.4
aF-575.2
aF-531.7
aF-689.4
aF-593.6
aF-548.3
aF-766.2
aF-537.9
aF-535.6
aF-617.5
aF-558.9
aF-643.0
aF-619.1
aF-750.3
aF-730.8
aF-620.9
aF-708.9
aF-609.0
aF-609.7
aF-602.0
aF-489.0
aF-555.1
aF-608.8
aF-791.1
aF-509.4
aF-572.2
aF-639.8
aF-771.7
aF-578.8
aF-424.9
aF-527.7
aF-515.7
aF-529.1
aF-581.4
aF-574.6
aF-687.9
aF-550.2
aF-581.8
aF-608.5
aF-641.7
atp407
a(g1
(g2
(I0
tp408
g4
tp409
Rp410
(I1
(I4
tp411
g8
(S'f8'
p412
I0
I1
tp413
Rp414
(I3
S'<'
p415
NNNI-1
I-1
I0
tp416
bI00
S'\xc6\xe6>r\xcag#@\x11\xb5\xaa\xde\xb5\x1e%@N\xea\xd15\x89\xfb\t@\xd6\x8f\xd7\xcb\x80\x80\x84@'
p417
tp418
b(lp419
F-542.4
aF-669.9
aF-594.6
aF-662.6
aF-640.1
aF-408.2
aF-621.0
aF-553.7
aF-618.9
aF-577.4
aF-569.1
aF-532.3
aF-645.4
aF-479.0
aF-649.7
aF-556.8
aF-730.1
aF-645.2
aF-614.4
aF-517.2
aF-539.8
aF-733.0
aF-564.2
aF-603.1
aF-702.8
aF-603.2
aF-550.3
aF-733.6
aF-549.0
aF-638.1
aF-681.7
aF-666.1
aF-757.4
aF-690.6
aF-595.1
aF-631.1
aF-535.5
aF-453.5
aF-478.8
aF-629.5
aF-619.1
aF-542.9
aF-700.4
aF-700.5
aF-577.5
aF-468.7
aF-736.2
aF-568.7
aF-656.3
aF-744.7
aF-746.7
aF-426.5
aF-628.5
aF-604.4
aF-503.5
aF-681.9
aF-493.7
aF-776.5
aF-597.4
aF-623.3
aF-718.3
aF-508.5
aF-553.2
aF-555.4
aF-719.1
aF-579.1
aF-645.0
aF-465.6
aF-659.4
aF-469.0
aF-605.6
aF-605.3
aF-631.3
aF-928.0
aF-620.6
aF-517.6
aF-615.4
aF-526.2
aF-703.4
aF-553.1
aF-643.6
aF-644.7
aF-542.4
aF-600.3
aF-598.1
aF-408.0
aF-632.8
aF-688.3
aF-677.7
aF-575.6
aF-593.4
aF-541.0
aF-545.0
aF-649.4
aF-463.9
aF-561.8
aF-491.9
aF-596.2
aF-463.0
aF-393.6
aF-603.0
atp420
a(g1
(g2
(I0
tp421
g4
tp422
Rp423
(I1
(I4
tp424
g8
(S'f8'
p425
I0
I1
tp426
Rp427
(I3
S'<'
p428
NNNI-1
I-1
I0
tp429
bI00
S'\xe6\xb3\xff\xbc\xc4\xfb @\xaai\x98\xa4\xf2Y#@\xe8P#zK\x1b\xe7?\x98.\xb0\xde\xf1\x04\x87@'
p430
tp431
b(lp432
F-668.1
aF-552.5
aF-564.9
aF-608.8
aF-588.2
aF-800.5
aF-517.5
aF-788.7
aF-490.1
aF-503.3
aF-642.4
aF-666.6
aF-511.5
aF-643.0
aF-625.3
aF-514.3
aF-769.8
aF-472.1
aF-632.1
aF-540.5
aF-662.1
aF-488.5
aF-628.7
aF-695.4
aF-706.0
aF-588.1
aF-542.6
aF-523.2
aF-425.5
aF-686.8
aF-493.5
aF-708.9
aF-419.5
aF-568.7
aF-669.8
aF-669.8
aF-606.4
aF-617.5
aF-718.0
aF-611.8
aF-546.6
aF-674.2
aF-672.5
aF-599.7
aF-572.8
aF-738.4
aF-535.3
aF-692.4
aF-563.5
aF-512.7
aF-490.0
aF-609.5
aF-529.3
aF-572.4
aF-573.8
aF-641.0
aF-666.8
aF-455.5
aF-636.0
aF-706.7
aF-650.6
aF-779.3
aF-472.7
aF-640.5
aF-557.8
aF-715.6
aF-836.0
aF-681.3
aF-657.5
aF-573.6
aF-612.9
aF-536.5
aF-537.2
aF-721.9
aF-725.3
aF-519.1
aF-659.3
aF-497.1
aF-558.8
aF-823.7
aF-711.0
aF-587.8
aF-751.4
aF-707.8
aF-605.6
aF-555.0
aF-577.8
aF-747.5
aF-641.3
aF-595.6
aF-623.6
aF-668.3
aF-691.6
aF-596.3
aF-619.4
aF-471.0
aF-591.0
aF-454.6
aF-456.1
aF-479.5
aF-541.2
atp433
a(g1
(g2
(I0
tp434
g4
tp435
Rp436
(I1
(I4
tp437
g8
(S'f8'
p438
I0
I1
tp439
Rp440
(I3
S'<'
p441
NNNI-1
I-1
I0
tp442
bI00
S'\x9e\xed\xc1(X\x88$@\xf9q\xe2\x9eA\x82E@\xdc\xf3\xe8\xb4\x03A\xe5?\xe7\xb5\xf3\xc7[g\x83@'
p443
tp444
b(lp445
F-530.9
aF-606.2
aF-537.3
aF-552.0
aF-509.2
aF-565.5
aF-524.0
aF-577.0
aF-562.8
aF-633.9
aF-707.6
aF-727.9
aF-737.3
aF-648.8
aF-642.0
aF-610.5
aF-667.3
aF-601.5
aF-672.2
aF-549.3
aF-579.8
aF-759.3
aF-575.3
aF-565.4
aF-451.6
aF-609.2
aF-714.5
aF-428.4
aF-621.7
aF-580.3
aF-467.8
aF-604.4
aF-583.0
aF-527.4
aF-639.0
aF-618.1
aF-581.6
aF-628.7
aF-575.6
aF-682.7
aF-575.9
aF-622.0
aF-568.3
aF-469.6
aF-498.7
aF-481.1
aF-508.7
aF-600.7
aF-565.8
aF-764.0
aF-650.4
aF-651.8
aF-653.4
aF-675.6
aF-546.0
aF-617.6
aF-516.4
aF-570.1
aF-516.5
aF-729.8
aF-681.1
aF-428.4
aF-620.3
aF-738.4
aF-578.3
aF-748.9
aF-647.2
aF-735.2
aF-715.2
aF-780.4
aF-617.6
aF-656.4
aF-473.5
aF-591.3
aF-499.1
aF-711.2
aF-710.2
aF-855.6
aF-494.1
aF-633.3
aF-618.4
aF-646.5
aF-552.6
aF-505.1
aF-525.7
aF-553.8
aF-608.9
aF-502.0
aF-728.8
aF-653.5
aF-690.5
aF-618.6
aF-429.5
aF-642.0
aF-543.0
aF-513.3
aF-522.1
aF-673.5
aF-642.6
aF-491.0
aF-645.7
atp446
a(g1
(g2
(I0
tp447
g4
tp448
Rp449
(I1
(I4
tp450
g8
(S'f8'
p451
I0
I1
tp452
Rp453
(I3
S'<'
p454
NNNI-1
I-1
I0
tp455
bI00
S'\xf6\xea` *\x0c#@\x9d\xfd\x9egJ\xc9#@8\x89\x9b@"i\xec?\xa0\xdf\xb1\xb3\xb9\x1a\x8f@'
p456
tp457
b(lp458
F-736.2
aF-451.5
aF-750.5
aF-662.8
aF-494.4
aF-677.6
aF-497.6
aF-625.1
aF-568.4
aF-478.1
aF-595.6
aF-523.5
aF-749.8
aF-512.6
aF-544.7
aF-465.6
aF-660.1
aF-599.4
aF-542.8
aF-517.9
aF-538.3
aF-477.1
aF-604.6
aF-508.1
aF-592.2
aF-432.2
aF-426.9
aF-600.4
aF-549.2
aF-620.4
aF-718.5
aF-430.7
aF-635.8
aF-537.0
aF-375.7
aF-485.3
aF-499.8
aF-541.8
aF-728.7
aF-452.4
aF-463.6
aF-474.6
aF-469.8
aF-471.9
aF-556.5
aF-540.2
aF-579.4
aF-590.0
aF-413.4
aF-554.5
aF-534.4
aF-443.1
aF-397.1
aF-651.9
aF-466.9
aF-592.7
aF-636.4
aF-521.3
aF-594.1
aF-502.1
aF-405.2
aF-455.4
aF-641.9
aF-615.1
aF-429.6
aF-489.2
aF-583.2
aF-661.5
aF-463.0
aF-575.9
aF-583.8
aF-561.4
aF-521.9
aF-451.1
aF-550.9
aF-588.2
aF-563.0
aF-502.2
aF-540.0
aF-534.2
aF-498.0
aF-576.1
aF-607.5
aF-519.9
aF-575.3
aF-468.8
aF-396.5
aF-532.7
aF-597.1
aF-510.0
aF-594.1
aF-472.6
aF-461.5
aF-461.0
aF-677.0
aF-515.5
aF-608.2
aF-655.4
aF-637.7
aF-415.1
aF-505.0
atp459
a(g1
(g2
(I0
tp460
g4
tp461
Rp462
(I1
(I4
tp463
g8
(S'f8'
p464
I0
I1
tp465
Rp466
(I3
S'<'
p467
NNNI-1
I-1
I0
tp468
bI00
S'\xb9+sn\xd3P!@\x83\xabei.>#@[\xb8\xe43\xd8\xa9\xe4?\x04\x03\xccc\x158\x87@'
p469
tp470
b(lp471
F-594.1
aF-539.5
aF-529.6
aF-597.8
aF-599.9
aF-704.7
aF-669.1
aF-726.9
aF-531.3
aF-608.5
aF-596.7
aF-572.6
aF-755.1
aF-615.5
aF-545.1
aF-639.5
aF-727.9
aF-517.9
aF-597.2
aF-785.5
aF-611.1
aF-707.4
aF-731.2
aF-549.9
aF-610.0
aF-595.4
aF-730.7
aF-607.9
aF-581.8
aF-680.1
aF-461.5
aF-758.2
aF-537.7
aF-546.8
aF-542.5
aF-542.9
aF-653.1
aF-490.7
aF-528.6
aF-488.6
aF-669.1
aF-622.4
aF-414.8
aF-518.2
aF-665.7
aF-632.0
aF-624.7
aF-593.4
aF-578.3
aF-576.3
aF-708.2
aF-566.6
aF-681.1
aF-569.9
aF-538.6
aF-633.5
aF-571.5
aF-424.9
aF-592.4
aF-629.0
aF-606.3
aF-577.7
aF-712.8
aF-502.5
aF-707.9
aF-640.5
aF-473.1
aF-643.2
aF-471.7
aF-570.4
aF-615.5
aF-579.4
aF-524.3
aF-551.2
aF-579.0
aF-643.4
aF-521.6
aF-605.4
aF-477.9
aF-602.3
aF-725.6
aF-614.8
aF-568.1
aF-638.5
aF-680.7
aF-640.4
aF-604.6
aF-595.1
aF-634.6
aF-600.1
aF-522.8
aF-577.1
aF-626.0
aF-594.2
aF-539.0
aF-799.2
aF-579.5
aF-414.3
aF-511.7
aF-694.4
aF-545.0
atp472
a.